target datalayout = "e-m:e-p270:32:32-p271:32:32-p272:64:64-i64:64-i128:128-f80:128-n8:16:32:64-S128"
target triple = "x86_64-pc-linux-gnu"

%struct.ImVec2 = type { float, float }
%struct.ImRect = type { %struct.ImVec2, %struct.ImVec2 }
%struct.ImGuiWindow = type <{ ptr, ptr, i32, i32, i32, [4 x i8], ptr, %struct.ImVec2, %struct.ImVec2, %struct.ImVec2, %struct.ImVec2, %struct.ImVec2, %struct.ImVec2, %struct.ImVec2, float, float, float, float, float, float, float, float, float, float, i32, i32, i32, i32, %struct.ImVec2, %struct.ImVec2, %struct.ImVec2, %struct.ImVec2, %struct.ImVec2, %struct.ImVec2, i8, i8, i8, i8, i8, i8, i8, i8, i8, i8, i8, i8, i8, i8, i8, i8, i16, i16, i16, i16, i16, i8, i8, i8, [3 x i8], i32, i8, i8, i8, i8, i32, %struct.ImVec2, %struct.ImVec2, [4 x i8], %struct.ImVector, %struct.ImGuiWindowTempData, %struct.ImRect, %struct.ImRect, %struct.ImRect, %struct.ImRect, %struct.ImRect, %struct.ImRect, %struct.ImRect, %struct.ImVec2ih, %struct.ImVec2ih, i32, float, float, [4 x i8], %struct.ImGuiStorage, %struct.ImVector.3, float, float, float, i32, ptr, %struct.ImDrawList, ptr, ptr, ptr, ptr, ptr, ptr, ptr, ptr, [2 x i32], [2 x %struct.ImRect], [2 x %struct.ImVec2], i32, i32, i32, i8, [3 x i8] }>
%struct.ImVector = type { i32, i32, ptr }
%struct.ImGuiWindowTempData = type { %struct.ImVec2, %struct.ImVec2, %struct.ImVec2, %struct.ImVec2, %struct.ImVec2, %struct.ImVec2, %struct.ImVec2, float, float, i8, i8, %struct.ImVec1, %struct.ImVec1, %struct.ImVec1, %struct.ImVec2, i32, i16, i16, i8, i8, i8, i8, %struct.ImVec2, %struct.ImGuiMenuColumns, i32, i32, %struct.ImVector.0, ptr, ptr, i32, i32, i32, i32, i32, i32, float, float, %struct.ImVector.1, %struct.ImVector.1 }
%struct.ImVec1 = type { float }
%struct.ImGuiMenuColumns = type <{ i32, i32, i16, i16, i16, i16, i16, [4 x i16], [2 x i8] }>
%struct.ImVector.0 = type { i32, i32, ptr }
%struct.ImVector.1 = type { i32, i32, ptr }
%struct.ImVec2ih = type { i16, i16 }
%struct.ImGuiStorage = type { %struct.ImVector.2 }
%struct.ImVector.2 = type { i32, i32, ptr }
%struct.ImVector.3 = type { i32, i32, ptr }
%struct.ImDrawList = type { %struct.ImVector.4, %struct.ImVector.5, %struct.ImVector.6, i32, i32, ptr, ptr, ptr, %struct.ImVector.7, %struct.ImDrawCmdHeader, %struct.ImDrawListSplitter, %struct.ImVector.9, %struct.ImVector.10, %struct.ImVector.11, float, ptr }
%struct.ImVector.4 = type { i32, i32, ptr }
%struct.ImVector.5 = type { i32, i32, ptr }
%struct.ImVector.6 = type { i32, i32, ptr }
%struct.ImVector.7 = type { i32, i32, ptr }
%struct.ImDrawCmdHeader = type <{ %struct.ImVec4, i64, i32, [4 x i8] }>
%struct.ImVec4 = type { float, float, float, float }
%struct.ImDrawListSplitter = type { i32, i32, %struct.ImVector.8 }
%struct.ImVector.8 = type { i32, i32, ptr }
%struct.ImVector.9 = type { i32, i32, ptr }
%struct.ImVector.10 = type { i32, i32, ptr }
%struct.ImVector.11 = type { i32, i32, ptr }
%struct.ImGuiContext = type { i8, i8, %struct.ImGuiIO, %struct.ImGuiPlatformIO, %struct.ImGuiStyle, ptr, float, float, float, float, %struct.ImDrawListSharedData, double, i32, i32, i32, i32, i8, i8, i8, i8, ptr, [16 x i8], %struct.ImVector.12, %struct.ImVector.12, i32, i32, %struct.ImVector.0, %struct.ImVector.0, %struct.ImVector.0, %struct.ImVector.13, %struct.ImGuiStorage, i32, float, i32, ptr, ptr, ptr, ptr, ptr, ptr, %struct.ImVec2, i32, i32, float, %struct.ImVec2, %struct.ImVec2, i32, i32, i32, i32, i32, float, float, i8, i8, i8, i32, i32, float, i8, i8, i8, i8, i8, i8, i8, i8, %struct.ImVec2, ptr, i32, i32, %struct.ImGuiDeactivatedItemData, %struct.ImGuiDataTypeStorage, i32, float, double, double, double, %struct.ImBitArray, [154 x %struct.ImGuiKeyOwnerData], %struct.ImGuiKeyRoutingTable, i32, i8, i32, i32, i32, i32, %struct.ImGuiNextItemData, %struct.ImGuiLastItemData, %struct.ImGuiNextWindowData, i8, i32, %struct.ImVector.15, %struct.ImVector.16, %struct.ImVector.17, %struct.ImVector.18, %struct.ImVector.19, %struct.ImVector.20, %struct.ImVector.21, %struct.ImVector.21, %struct.ImVector.22, %struct.ImVector.23, i8, i8, i8, i8, i32, ptr, i32, i32, i32, i32, i32, i32, %struct.ImVector.18, i32, float, i32, i32, i32, i64, i8, i8, i8, i8, %struct.ImGuiNavItemData, i8, i8, i8, i32, i32, i32, i32, i32, i32, %struct.ImRect, %struct.ImRect, i32, i32, i32, %struct.ImGuiNavItemData, %struct.ImGuiNavItemData, %struct.ImGuiNavItemData, %struct.ImGuiNavItemData, i32, i32, i32, i32, i8, i8, i32, i32, ptr, ptr, ptr, float, float, i8, i32, %struct.ImVec2, %struct.ImVec2, float, i8, i8, i8, i32, i32, i32, [4 x i8], %struct.ImGuiPayload, %struct.ImRect, %struct.ImRect, i32, i32, float, i32, i32, i32, i32, %struct.ImVector.11, [16 x i8], i32, %struct.ImVector.24, ptr, i32, i32, %struct.ImVector.25, %struct.ImPool, %struct.ImVector.1, %struct.ImVector.8, ptr, %struct.ImPool.27, %struct.ImVector.29, %struct.ImVector.30, %struct.ImGuiBoxSelectState, ptr, i32, %struct.ImVector.31, %struct.ImPool.32, i32, i32, float, float, i32, i32, i32, float, %struct.ImVec2, %struct.ImGuiInputTextState, %struct.ImGuiInputTextDeactivatedState, %struct.ImFont, i32, %struct.ImGuiDataTypeStorage, i32, i32, i32, i32, i32, float, float, i32, %struct.ImVec4, %struct.ImGuiComboPreviewData, %struct.ImRect, i8, i16, float, float, float, i8, i8, float, float, float, i16, i16, ptr, %struct.ImVector.34, %struct.ImVector, %struct.ImGuiTypingSelectState, %struct.ImGuiPlatformImeData, %struct.ImGuiPlatformImeData, i8, float, %struct.ImGuiTextBuffer, %struct.ImVector.36, %struct.ImChunkStream, %struct.ImChunkStream.37, %struct.ImVector.38, i32, [10 x ptr], i8, i32, ptr, ptr, %struct.ImGuiTextBuffer, ptr, ptr, float, i8, i32, i32, i32, ptr, ptr, %struct.ImVec2, i8, i32, %struct.ImGuiErrorRecoveryState, ptr, i32, i32, %struct.ImGuiTextBuffer, %struct.ImGuiTextIndex, i32, i32, i8, i8, i8, i32, i8, i8, i8, i32, float, %struct.ImVec4, %struct.ImGuiMetricsConfig, %struct.ImGuiIDStackTool, %struct.ImGuiDebugAllocInfo, [60 x float], i32, i32, float, i32, i32, i32, %struct.ImVector.34, [64 x i8] }
%struct.ImGuiIO = type { i32, i32, %struct.ImVec2, float, float, ptr, ptr, ptr, ptr, float, i8, ptr, %struct.ImVec2, i8, i8, i8, i8, i8, i8, i8, i8, i8, i8, i8, i8, i8, i8, i8, i8, i8, float, float, float, float, float, float, i8, i8, i8, i8, i8, i8, i8, i8, i8, i8, ptr, ptr, ptr, ptr, ptr, i8, i8, i8, i8, i8, i8, i8, float, i32, i32, i32, i32, %struct.ImVec2, ptr, %struct.ImVec2, [5 x i8], float, float, i32, i8, i8, i8, i8, i32, [154 x %struct.ImGuiKeyData], i8, %struct.ImVec2, [5 x %struct.ImVec2], [5 x double], [5 x i8], [5 x i8], [5 x i16], [5 x i16], [5 x i8], [5 x double], [5 x i8], [5 x i8], i8, i8, [5 x float], [5 x float], [5 x float], float, i8, i8, i16, %struct.ImVector.5, ptr, ptr, ptr }
%struct.ImGuiKeyData = type { i8, float, float, float }
%struct.ImGuiPlatformIO = type { ptr, ptr, ptr, ptr, ptr, ptr, ptr, i16, ptr }
%struct.ImGuiStyle = type { float, float, %struct.ImVec2, float, float, float, %struct.ImVec2, %struct.ImVec2, i32, float, float, float, float, %struct.ImVec2, float, float, %struct.ImVec2, %struct.ImVec2, %struct.ImVec2, %struct.ImVec2, float, float, float, float, float, float, float, float, float, float, float, float, float, float, %struct.ImVec2, i32, %struct.ImVec2, %struct.ImVec2, float, %struct.ImVec2, %struct.ImVec2, %struct.ImVec2, %struct.ImVec2, float, i8, i8, i8, float, float, [56 x %struct.ImVec4], float, float, float, i32, i32 }
%struct.ImDrawListSharedData = type <{ %struct.ImVec2, ptr, ptr, float, float, float, float, float, i32, %struct.ImVec4, %struct.ImVector.7, [48 x %struct.ImVec2], float, [64 x i8], [4 x i8] }>
%struct.ImVector.12 = type { i32, i32, ptr }
%struct.ImVector.13 = type { i32, i32, ptr }
%struct.ImGuiDeactivatedItemData = type { i32, i32, i8, i8 }
%struct.ImBitArray = type { [5 x i32] }
%struct.ImGuiKeyOwnerData = type <{ i32, i32, i8, i8, [2 x i8] }>
%struct.ImGuiKeyRoutingTable = type { [154 x i16], %struct.ImVector.14, %struct.ImVector.14 }
%struct.ImVector.14 = type { i32, i32, ptr }
%struct.ImGuiNextItemData = type <{ i32, i32, i32, [4 x i8], i64, float, i32, i32, i8, i8, %struct.ImGuiDataTypeStorage, [2 x i8], i32, [4 x i8] }>
%struct.ImGuiLastItemData = type { i32, i32, i32, %struct.ImRect, %struct.ImRect, %struct.ImRect, %struct.ImRect, i32 }
%struct.ImGuiNextWindowData = type { i32, i32, i32, i32, %struct.ImVec2, %struct.ImVec2, %struct.ImVec2, %struct.ImVec2, %struct.ImVec2, i32, i32, i8, %struct.ImRect, ptr, ptr, float, %struct.ImVec2, i32 }
%struct.ImVector.15 = type { i32, i32, ptr }
%struct.ImVector.16 = type { i32, i32, ptr }
%struct.ImVector.17 = type { i32, i32, ptr }
%struct.ImVector.19 = type { i32, i32, ptr }
%struct.ImVector.20 = type { i32, i32, ptr }
%struct.ImVector.21 = type { i32, i32, ptr }
%struct.ImVector.22 = type { i32, i32, ptr }
%struct.ImVector.23 = type { i32, i32, ptr }
%struct.ImVector.18 = type { i32, i32, ptr }
%struct.ImGuiNavItemData = type { ptr, i32, i32, %struct.ImRect, i32, float, float, float, i64 }
%struct.ImGuiPayload = type <{ ptr, i32, i32, i32, i32, [33 x i8], i8, i8, [5 x i8] }>
%struct.ImVector.24 = type { i32, i32, ptr }
%struct.ImVector.25 = type { i32, i32, ptr }
%struct.ImPool = type { %struct.ImVector.26, %struct.ImGuiStorage, i32, i32 }
%struct.ImVector.26 = type { i32, i32, ptr }
%struct.ImPool.27 = type { %struct.ImVector.28, %struct.ImGuiStorage, i32, i32 }
%struct.ImVector.28 = type { i32, i32, ptr }
%struct.ImVector.29 = type { i32, i32, ptr }
%struct.ImVector.30 = type { i32, i32, ptr }
%struct.ImGuiBoxSelectState = type <{ i32, i8, i8, i8, i8, i8, i16, i8, %struct.ImVec2, %struct.ImVec2, %struct.ImVec2, [4 x i8], ptr, i8, [3 x i8], %struct.ImRect, %struct.ImRect, %struct.ImRect, [4 x i8] }>
%struct.ImVector.31 = type { i32, i32, ptr }
%struct.ImPool.32 = type { %struct.ImVector.33, %struct.ImGuiStorage, i32, i32 }
%struct.ImVector.33 = type { i32, i32, ptr }
%struct.ImGuiInputTextState = type <{ ptr, ptr, i32, i32, i32, [4 x i8], ptr, %struct.ImVector.34, %struct.ImVector.34, %struct.ImVector.34, i32, %struct.ImVec2, float, i8, i8, i8, i8, i32, i32, [4 x i8] }>
%struct.ImGuiInputTextDeactivatedState = type { i32, %struct.ImVector.34 }
%struct.ImFont = type <{ %struct.ImVector.1, float, float, %struct.ImVector.5, %struct.ImVector.35, ptr, ptr, ptr, i16, i16, i16, i16, float, float, float, float, float, i32, i8, [1 x i8], [6 x i8] }>
%struct.ImVector.35 = type { i32, i32, ptr }
%struct.ImGuiDataTypeStorage = type { [8 x i8] }
%struct.ImGuiComboPreviewData = type { %struct.ImRect, %struct.ImVec2, %struct.ImVec2, %struct.ImVec2, float, i32 }
%struct.ImGuiTypingSelectState = type <{ %struct.ImGuiTypingSelectRequest, [64 x i8], i32, i32, float, i8, [3 x i8] }>
%struct.ImGuiTypingSelectRequest = type { i32, i32, ptr, i8, i8, i8 }
%struct.ImGuiPlatformImeData = type { i8, %struct.ImVec2, float }
%struct.ImVector.36 = type { i32, i32, ptr }
%struct.ImChunkStream = type { %struct.ImVector.34 }
%struct.ImChunkStream.37 = type { %struct.ImVector.34 }
%struct.ImVector.38 = type { i32, i32, ptr }
%struct.ImGuiErrorRecoveryState = type { i16, i16, i16, i16, i16, i16, i16, i16, i16, i16, i16 }
%struct.ImGuiTextBuffer = type { %struct.ImVector.34 }
%struct.ImGuiTextIndex = type <{ %struct.ImVector.19, i32, [4 x i8] }>
%struct.ImGuiMetricsConfig = type { i8, i8, i8, i8, i8, i8, i8, i8, i8, i32, i32, i32, i32 }
%struct.ImGuiIDStackTool = type { i32, i32, i32, %struct.ImVector.39, i8, float }
%struct.ImVector.39 = type { i32, i32, ptr }
%struct.ImGuiDebugAllocInfo = type { i32, i32, i16, [6 x %struct.ImGuiDebugAllocEntry] }
%struct.ImGuiDebugAllocEntry = type { i32, i16, i16 }
%struct.ImVector.34 = type { i32, i32, ptr }

@GImGui = external global ptr, align 8
@.str.98 = private unnamed_addr constant [7 x i8] c"#CLOSE\00", align 1

; Function Attrs: mustprogress nounwind uwtable
define linkonce_odr void @_ZN6ImVec2C2Eff(ptr noundef nonnull align 4 dereferenceable(8) %0, float noundef %1, float noundef %2) unnamed_addr #4 comdat align 2 {
  %4 = alloca ptr, align 8
  %5 = alloca float, align 4
  %6 = alloca float, align 4
  store ptr %0, ptr %4, align 8, !tbaa !175
  store float %1, ptr %5, align 4, !tbaa !69
  store float %2, ptr %6, align 4, !tbaa !69
  %7 = load ptr, ptr %4, align 8
  %8 = getelementptr inbounds nuw %struct.ImVec2, ptr %7, i32 0, i32 0
  %9 = load float, ptr %5, align 4, !tbaa !69
  store float %9, ptr %8, align 4, !tbaa !166
  %10 = getelementptr inbounds nuw %struct.ImVec2, ptr %7, i32 0, i32 1
  %11 = load float, ptr %6, align 4, !tbaa !69
  store float %11, ptr %10, align 4, !tbaa !165
  ret void
}

; Function Attrs: inlinehint mustprogress nounwind uwtable
define internal noundef float @_ZL5ImMaxIfET_S0_S0_(float noundef %0, float noundef %1) #2 {
  %3 = alloca float, align 4
  %4 = alloca float, align 4
  store float %0, ptr %3, align 4, !tbaa !69
  store float %1, ptr %4, align 4, !tbaa !69
  %5 = load float, ptr %3, align 4, !tbaa !69
  %6 = load float, ptr %4, align 4, !tbaa !69
  %7 = fcmp oge float %5, %6
  br i1 %7, label %8, label %10

8:                                                ; preds = %2
  %9 = load float, ptr %3, align 4, !tbaa !69
  br label %12

10:                                               ; preds = %2
  %11 = load float, ptr %4, align 4, !tbaa !69
  br label %12

12:                                               ; preds = %10, %8
  %13 = phi float [ %9, %8 ], [ %11, %10 ]
  ret float %13
}

; Function Attrs: inlinehint mustprogress nounwind uwtable
define linkonce_odr noundef ptr @_ZN5ImGui16GetCurrentWindowEv() #2 comdat {
  %1 = alloca ptr, align 8
  call void @llvm.lifetime.start.p0(i64 8, ptr %1) #17
  %2 = load ptr, ptr @GImGui, align 8, !tbaa !64
  store ptr %2, ptr %1, align 8, !tbaa !64
  %3 = load ptr, ptr %1, align 8, !tbaa !64
  %4 = getelementptr inbounds nuw %struct.ImGuiContext, ptr %3, i32 0, i32 34
  %5 = load ptr, ptr %4, align 8, !tbaa !173
  %6 = getelementptr inbounds nuw %struct.ImGuiWindow, ptr %5, i32 0, i32 38
  store i8 1, ptr %6, align 4, !tbaa !174
  %7 = load ptr, ptr %1, align 8, !tbaa !64
  %8 = getelementptr inbounds nuw %struct.ImGuiContext, ptr %7, i32 0, i32 34
  %9 = load ptr, ptr %8, align 8, !tbaa !173
  call void @llvm.lifetime.end.p0(i64 8, ptr %1) #17
  ret ptr %9
}

; Function Attrs: mustprogress uwtable
define noundef zeroext i1 @_ZN5ImGui16CollapsingHeaderEPKcPbi(ptr noundef %0, ptr noundef %1, i32 noundef %2) #9 {
  %4 = alloca i1, align 1
  %5 = alloca ptr, align 8
  %6 = alloca ptr, align 8
  %7 = alloca i32, align 4
  %8 = alloca ptr, align 8
  %9 = alloca i32, align 4
  %10 = alloca i32, align 4
  %11 = alloca i8, align 1
  %12 = alloca ptr, align 8
  %13 = alloca %struct.ImGuiLastItemData, align 4
  %14 = alloca float, align 4
  %15 = alloca float, align 4
  %16 = alloca float, align 4
  %17 = alloca i32, align 4
  %18 = alloca %struct.ImVec2, align 4
  store ptr %0, ptr %5, align 8, !tbaa !3
  store ptr %1, ptr %6, align 8, !tbaa !189
  store i32 %2, ptr %7, align 4, !tbaa !8
  call void @llvm.lifetime.start.p0(i64 8, ptr %8) #17
  %19 = call noundef ptr @_ZN5ImGui16GetCurrentWindowEv()
  store ptr %19, ptr %8, align 8, !tbaa !10
  %20 = load ptr, ptr %8, align 8, !tbaa !10
  %21 = getelementptr inbounds nuw %struct.ImGuiWindow, ptr %20, i32 0, i32 41
  %22 = load i8, ptr %21, align 1, !tbaa !12, !range !62, !noundef !63
  %23 = trunc i8 %22 to i1
  br i1 %23, label %24, label %25

24:                                               ; preds = %3
  store i1 false, ptr %4, align 1
  store i32 1, ptr %9, align 4
  br label %106

25:                                               ; preds = %3
  %26 = load ptr, ptr %6, align 8, !tbaa !189
  %27 = icmp ne ptr %26, null
  br i1 %27, label %28, label %33

28:                                               ; preds = %25
  %29 = load ptr, ptr %6, align 8, !tbaa !189
  %30 = load i8, ptr %29, align 1, !tbaa !70, !range !62, !noundef !63
  %31 = trunc i8 %30 to i1
  br i1 %31, label %33, label %32

32:                                               ; preds = %28
  store i1 false, ptr %4, align 1
  store i32 1, ptr %9, align 4
  br label %106

33:                                               ; preds = %28, %25
  call void @llvm.lifetime.start.p0(i64 4, ptr %10) #17
  %34 = load ptr, ptr %8, align 8, !tbaa !10
  %35 = load ptr, ptr %5, align 8, !tbaa !3
  %36 = call noundef i32 @_ZN11ImGuiWindow5GetIDEPKcS1_(ptr noundef nonnull align 8 dereferenceable(1061) %34, ptr noundef %35, ptr noundef null)
  store i32 %36, ptr %10, align 4, !tbaa !8
  %37 = load i32, ptr %7, align 4, !tbaa !8
  %38 = or i32 %37, 26
  store i32 %38, ptr %7, align 4, !tbaa !8
  %39 = load ptr, ptr %6, align 8, !tbaa !189
  %40 = icmp ne ptr %39, null
  br i1 %40, label %41, label %44

41:                                               ; preds = %33
  %42 = load i32, ptr %7, align 4, !tbaa !8
  %43 = or i32 %42, 268435460
  store i32 %43, ptr %7, align 4, !tbaa !8
  br label %44

44:                                               ; preds = %41, %33
  call void @llvm.lifetime.start.p0(i64 1, ptr %11) #17
  %45 = load i32, ptr %10, align 4, !tbaa !8
  %46 = load i32, ptr %7, align 4, !tbaa !8
  %47 = load ptr, ptr %5, align 8, !tbaa !3
  %48 = call noundef zeroext i1 @_ZN5ImGui16TreeNodeBehaviorEjiPKcS1_(i32 noundef %45, i32 noundef %46, ptr noundef %47, ptr noundef null)
  %49 = zext i1 %48 to i8
  store i8 %49, ptr %11, align 1, !tbaa !70
  %50 = load ptr, ptr %6, align 8, !tbaa !189
  %51 = icmp ne ptr %50, null
  br i1 %51, label %52, label %103

52:                                               ; preds = %44
  call void @llvm.lifetime.start.p0(i64 8, ptr %12) #17
  %53 = load ptr, ptr @GImGui, align 8, !tbaa !64
  store ptr %53, ptr %12, align 8, !tbaa !64
  call void @llvm.lifetime.start.p0(i64 80, ptr %13) #17
  %54 = load ptr, ptr %12, align 8, !tbaa !64
  %55 = getelementptr inbounds nuw %struct.ImGuiContext, ptr %54, i32 0, i32 88
  call void @llvm.memcpy.p0.p0.i64(ptr align 4 %13, ptr align 8 %55, i64 80, i1 false), !tbaa.struct !426
  call void @llvm.lifetime.start.p0(i64 4, ptr %14) #17
  %56 = load ptr, ptr %12, align 8, !tbaa !64
  %57 = getelementptr inbounds nuw %struct.ImGuiContext, ptr %56, i32 0, i32 6
  %58 = load float, ptr %57, align 8, !tbaa !186
  store float %58, ptr %14, align 4, !tbaa !69
  call void @llvm.lifetime.start.p0(i64 4, ptr %15) #17
  %59 = load ptr, ptr %12, align 8, !tbaa !64
  %60 = getelementptr inbounds nuw %struct.ImGuiContext, ptr %59, i32 0, i32 88
  %61 = getelementptr inbounds nuw %struct.ImGuiLastItemData, ptr %60, i32 0, i32 3
  %62 = getelementptr inbounds nuw %struct.ImRect, ptr %61, i32 0, i32 0
  %63 = getelementptr inbounds nuw %struct.ImVec2, ptr %62, i32 0, i32 0
  %64 = load float, ptr %63, align 4, !tbaa !631
  %65 = load ptr, ptr %12, align 8, !tbaa !64
  %66 = getelementptr inbounds nuw %struct.ImGuiContext, ptr %65, i32 0, i32 88
  %67 = getelementptr inbounds nuw %struct.ImGuiLastItemData, ptr %66, i32 0, i32 3
  %68 = getelementptr inbounds nuw %struct.ImRect, ptr %67, i32 0, i32 1
  %69 = getelementptr inbounds nuw %struct.ImVec2, ptr %68, i32 0, i32 0
  %70 = load float, ptr %69, align 4, !tbaa !632
  %71 = load ptr, ptr %12, align 8, !tbaa !64
  %72 = getelementptr inbounds nuw %struct.ImGuiContext, ptr %71, i32 0, i32 4
  %73 = getelementptr inbounds nuw %struct.ImGuiStyle, ptr %72, i32 0, i32 13
  %74 = getelementptr inbounds nuw %struct.ImVec2, ptr %73, i32 0, i32 0
  %75 = load float, ptr %74, align 8, !tbaa !346
  %76 = fsub float %70, %75
  %77 = load float, ptr %14, align 4, !tbaa !69
  %78 = fsub float %76, %77
  %79 = call noundef float @_ZL5ImMaxIfET_S0_S0_(float noundef %64, float noundef %78)
  store float %79, ptr %15, align 4, !tbaa !69
  call void @llvm.lifetime.start.p0(i64 4, ptr %16) #17
  %80 = load ptr, ptr %12, align 8, !tbaa !64
  %81 = getelementptr inbounds nuw %struct.ImGuiContext, ptr %80, i32 0, i32 88
  %82 = getelementptr inbounds nuw %struct.ImGuiLastItemData, ptr %81, i32 0, i32 3
  %83 = getelementptr inbounds nuw %struct.ImRect, ptr %82, i32 0, i32 0
  %84 = getelementptr inbounds nuw %struct.ImVec2, ptr %83, i32 0, i32 1
  %85 = load float, ptr %84, align 4, !tbaa !633
  %86 = load ptr, ptr %12, align 8, !tbaa !64
  %87 = getelementptr inbounds nuw %struct.ImGuiContext, ptr %86, i32 0, i32 4
  %88 = getelementptr inbounds nuw %struct.ImGuiStyle, ptr %87, i32 0, i32 13
  %89 = getelementptr inbounds nuw %struct.ImVec2, ptr %88, i32 0, i32 1
  %90 = load float, ptr %89, align 4, !tbaa !230
  %91 = fadd float %85, %90
  store float %91, ptr %16, align 4, !tbaa !69
  call void @llvm.lifetime.start.p0(i64 4, ptr %17) #17
  %92 = load i32, ptr %10, align 4, !tbaa !8
  %93 = call noundef i32 @_ZN5ImGui13GetIDWithSeedEPKcS1_j(ptr noundef @.str.98, ptr noundef null, i32 noundef %92)
  store i32 %93, ptr %17, align 4, !tbaa !8
  %94 = load i32, ptr %17, align 4, !tbaa !8
  call void @llvm.lifetime.start.p0(i64 8, ptr %18) #17
  %95 = load float, ptr %15, align 4, !tbaa !69
  %96 = load float, ptr %16, align 4, !tbaa !69
  call void @_ZN6ImVec2C2Eff(ptr noundef nonnull align 4 dereferenceable(8) %18, float noundef %95, float noundef %96)
  %97 = call noundef zeroext i1 @_ZN5ImGui11CloseButtonEjRK6ImVec2(i32 noundef %94, ptr noundef nonnull align 4 dereferenceable(8) %18)
  call void @llvm.lifetime.end.p0(i64 8, ptr %18) #17
  br i1 %97, label %98, label %100

98:                                               ; preds = %52
  %99 = load ptr, ptr %6, align 8, !tbaa !189
  store i8 0, ptr %99, align 1, !tbaa !70
  br label %100

100:                                              ; preds = %98, %52
  %101 = load ptr, ptr %12, align 8, !tbaa !64
  %102 = getelementptr inbounds nuw %struct.ImGuiContext, ptr %101, i32 0, i32 88
  call void @llvm.memcpy.p0.p0.i64(ptr align 8 %102, ptr align 4 %13, i64 80, i1 false), !tbaa.struct !426
  call void @llvm.lifetime.end.p0(i64 4, ptr %17) #17
  call void @llvm.lifetime.end.p0(i64 4, ptr %16) #17
  call void @llvm.lifetime.end.p0(i64 4, ptr %15) #17
  call void @llvm.lifetime.end.p0(i64 4, ptr %14) #17
  call void @llvm.lifetime.end.p0(i64 80, ptr %13) #17
  call void @llvm.lifetime.end.p0(i64 8, ptr %12) #17
  br label %103

103:                                              ; preds = %100, %44
  %104 = load i8, ptr %11, align 1, !tbaa !70, !range !62, !noundef !63
  %105 = trunc i8 %104 to i1
  store i1 %105, ptr %4, align 1
  store i32 1, ptr %9, align 4
  call void @llvm.lifetime.end.p0(i64 1, ptr %11) #17
  call void @llvm.lifetime.end.p0(i64 4, ptr %10) #17
  br label %106

106:                                              ; preds = %103, %32, %24
  call void @llvm.lifetime.end.p0(i64 8, ptr %8) #17
  %107 = load i1, ptr %4, align 1
  ret i1 %107
}