; Function Attrs: mustprogress uwtable
define noundef zeroext i1 @_ZN5ImGui16CollapsingHeaderEPKcPbi(ptr noundef %0, ptr noundef %1, i32 noundef %2) local_unnamed_addr #6 {
  %4 = alloca %struct.ImGuiLastItemData, align 4
  %5 = alloca %struct.ImVec2, align 4
  %6 = load ptr, ptr @GImGui, align 8, !tbaa !3
  %7 = getelementptr inbounds nuw i8, ptr %6, i64 5016
  %8 = load ptr, ptr %7, align 8, !tbaa !8
  %9 = getelementptr inbounds nuw i8, ptr %8, i64 204
  store i8 1, ptr %9, align 4, !tbaa !130
  %10 = getelementptr inbounds nuw i8, ptr %8, i64 207
  %11 = load i8, ptr %10, align 1, !tbaa !152, !range !153, !noundef !154
  %12 = trunc nuw i8 %11 to i1
  br i1 %12, label %45, label %13

13:                                               ; preds = %3
  %.not = icmp eq ptr %1, null
  br i1 %.not, label %17, label %14

14:                                               ; preds = %13
  %15 = load i8, ptr %1, align 1, !tbaa !209, !range !153, !noundef !154
  %16 = trunc nuw i8 %15 to i1
  br i1 %16, label %17, label %45

17:                                               ; preds = %14, %13
  %spec.select.v = phi i32 [ 268435486, %14 ], [ 26, %13 ]
  %18 = tail call noundef i32 @_ZN11ImGuiWindow5GetIDEPKcS1_(ptr noundef nonnull align 8 dereferenceable(1061) %8, ptr noundef %0, ptr noundef null)
  %spec.select = or i32 %spec.select.v, %2
  %19 = tail call noundef zeroext i1 @_ZN5ImGui16TreeNodeBehaviorEjiPKcS1_(i32 noundef %18, i32 noundef %spec.select, ptr noundef %0, ptr noundef null)
  br i1 %.not, label %45, label %20

20:                                               ; preds = %17
  %21 = load ptr, ptr @GImGui, align 8, !tbaa !3
  call void @llvm.lifetime.start.p0(i64 80, ptr nonnull %4)
  %22 = getelementptr inbounds nuw i8, ptr %21, i64 7528
  call void @llvm.memcpy.p0.p0.i64(ptr noundef nonnull align 4 dereferenceable(80) %4, ptr noundef nonnull align 8 dereferenceable(80) %22, i64 80, i1 false), !tbaa.struct !564
  %23 = getelementptr inbounds nuw i8, ptr %21, i64 4272
  %24 = load float, ptr %23, align 8, !tbaa !173
  %25 = getelementptr inbounds nuw i8, ptr %21, i64 7540
  %26 = load float, ptr %25, align 4, !tbaa !565
  %27 = getelementptr inbounds nuw i8, ptr %21, i64 7548
  %28 = load float, ptr %27, align 4, !tbaa !566
  %29 = getelementptr inbounds nuw i8, ptr %21, i64 3160
  %30 = load float, ptr %29, align 8, !tbaa !315
  %31 = fsub float %28, %30
  %32 = fsub float %31, %24
  %33 = fcmp oge float %26, %32
  %34 = select i1 %33, float %26, float %32
  %35 = getelementptr inbounds nuw i8, ptr %21, i64 7544
  %36 = load float, ptr %35, align 4, !tbaa !567
  %37 = getelementptr inbounds nuw i8, ptr %21, i64 3164
  %38 = load float, ptr %37, align 4, !tbaa !213
  %39 = fadd float %36, %38
  %40 = tail call noundef i32 @_ZN5ImGui13GetIDWithSeedEPKcS1_j(ptr noundef nonnull @.str.98, ptr noundef null, i32 noundef %18)
  call void @llvm.lifetime.start.p0(i64 8, ptr nonnull %5) #44
  store float %34, ptr %5, align 4, !tbaa !159
  %41 = getelementptr inbounds nuw i8, ptr %5, i64 4
  store float %39, ptr %41, align 4, !tbaa !160
  %42 = call noundef zeroext i1 @_ZN5ImGui11CloseButtonEjRK6ImVec2(i32 noundef %40, ptr noundef nonnull align 4 dereferenceable(8) %5)
  call void @llvm.lifetime.end.p0(i64 8, ptr nonnull %5) #44
  br i1 %42, label %43, label %44

43:                                               ; preds = %20
  store i8 0, ptr %1, align 1, !tbaa !209
  br label %44

44:                                               ; preds = %43, %20
  call void @llvm.memcpy.p0.p0.i64(ptr noundef nonnull align 8 dereferenceable(80) %22, ptr noundef nonnull align 4 dereferenceable(80) %4, i64 80, i1 false), !tbaa.struct !564
  call void @llvm.lifetime.end.p0(i64 80, ptr nonnull %4)
  br label %45

45:                                               ; preds = %17, %44, %14, %3
  %.0 = phi i1 [ false, %3 ], [ false, %14 ], [ %19, %44 ], [ %19, %17 ]
  ret i1 %.0
}